; Function Attrs: uwtable
define void @_ZThn16_N22EditManipulatorsPlugin15mousePressEventEP11QMouseEventR9MeshModelP6GLArea(ptr nocapture noundef writeonly %0, ptr nocapture noundef readonly %1, ptr nocapture noundef nonnull readnone align 8 dereferenceable(1288) %2, ptr noundef %3) unnamed_addr #13 align 2 {
  %5 = getelementptr inbounds i8, ptr %0, i64 192
  store i8 1, ptr %5, align 8
  %6 = getelementptr inbounds i8, ptr %1, i64 32
  %7 = load double, ptr %6, align 8
  %8 = fcmp ult double %7, 0.000000e+00
  br i1 %8, label %12, label %9

9:                                                ; preds = %4
  %10 = fadd double %7, 5.000000e-01
  %11 = fptosi double %10 to i32
  br label %_ZNK11QMouseEvent1xEv.exit.i

12:                                               ; preds = %4
  %13 = fadd double %7, -1.000000e+00
  %14 = fptosi double %13 to i32
  %15 = sitofp i32 %14 to double
  %16 = fsub double %7, %15
  %17 = fadd double %16, 5.000000e-01
  %18 = fptosi double %17 to i32
  %19 = add nsw i32 %18, %14
  br label %_ZNK11QMouseEvent1xEv.exit.i

_ZNK11QMouseEvent1xEv.exit.i:                     ; preds = %12, %9
  %20 = phi i32 [ %11, %9 ], [ %19, %12 ]
  %21 = getelementptr inbounds i8, ptr %1, i64 40
  %22 = load double, ptr %21, align 8
  %23 = fcmp ult double %22, 0.000000e+00
  br i1 %23, label %27, label %24

24:                                               ; preds = %_ZNK11QMouseEvent1xEv.exit.i
  %25 = fadd double %22, 5.000000e-01
  %26 = fptosi double %25 to i32
  br label %_ZN22EditManipulatorsPlugin15mousePressEventEP11QMouseEventR9MeshModelP6GLArea.exit

27:                                               ; preds = %_ZNK11QMouseEvent1xEv.exit.i
  %28 = fadd double %22, -1.000000e+00
  %29 = fptosi double %28 to i32
  %30 = sitofp i32 %29 to double
  %31 = fsub double %22, %30
  %32 = fadd double %31, 5.000000e-01
  %33 = fptosi double %32 to i32
  %34 = add nsw i32 %33, %29
  br label %_ZN22EditManipulatorsPlugin15mousePressEventEP11QMouseEventR9MeshModelP6GLArea.exit

_ZN22EditManipulatorsPlugin15mousePressEventEP11QMouseEventR9MeshModelP6GLArea.exit: ; preds = %24, %27
  %35 = phi i32 [ %26, %24 ], [ %34, %27 ]
  %36 = getelementptr inbounds i8, ptr %0, i64 196
  %.sroa.2.0.insert.ext.i = zext i32 %35 to i64
  %.sroa.2.0.insert.shift.i = shl nuw i64 %.sroa.2.0.insert.ext.i, 32
  %.sroa.0.0.insert.ext.i = zext i32 %20 to i64
  %.sroa.0.0.insert.insert.i = or disjoint i64 %.sroa.2.0.insert.shift.i, %.sroa.0.0.insert.ext.i
  store i64 %.sroa.0.0.insert.insert.i, ptr %36, align 4
  tail call void @_ZN7QWidget6updateEv(ptr noundef nonnull align 8 dereferenceable(48) %3)
  ret void
}